; Function Attrs: nounwind sspstrong uwtable
define dso_local void @bdrv_dirty_bitmap_set_readonly(ptr noundef captures(none) initializes((56, 57)) %bitmap, i1 noundef zeroext %value) local_unnamed_addr #0 {
entry:
  %frombool = zext i1 %value to i8
  %0 = load ptr, ptr %bitmap, align 8
  %1 = load atomic i64, ptr @qemu_mutex_lock_func monotonic, align 8
  %2 = inttoptr i64 %1 to ptr
  %dirty_bitmap_mutex.i = getelementptr inbounds nuw i8, ptr %0, i64 16904
  tail call void %2(ptr noundef nonnull %dirty_bitmap_mutex.i, ptr noundef nonnull @.str.1, i32 noundef 66) #14
  %readonly = getelementptr inbounds nuw i8, ptr %bitmap, i64 56
  store i8 %frombool, ptr %readonly, align 8
  %3 = load ptr, ptr %bitmap, align 8
  %dirty_bitmap_mutex.i3 = getelementptr inbounds nuw i8, ptr %3, i64 16904
  tail call void @qemu_mutex_unlock_impl(ptr noundef nonnull %dirty_bitmap_mutex.i3, ptr noundef nonnull @.str.1, i32 noundef 71) #14
  ret void
}